ccopy_reg
_reconstructor
p0
(cgoogle.oauth2.credentials
Credentials
p1
c__builtin__
object
p2
Ntp3
Rp4
(dp5
S'_quota_project_id'
p6
NsS'_token_uri'
p7
Vhttps://oauth2.googleapis.com/token
p8
sS'_client_secret'
p9
VV3NCUV-9us-tAVUEGCBpkBgI
p10
sS'_default_scopes'
p11
NsS'expiry'
p12
cdatetime
datetime
p13
(S'\x07\xe5\x02\x19\x05\r\x0e\x03\x00a'
p14
tp15
Rp16
sS'token'
p17
Vya29.A0AfH6SMAkM4laBIwhUnbe-iAxHQDmLoLGt1aTIkxC3DIlOyebzneGuljLpqhUtDmlkKD6GSgkMpoBnMdfAYi8CKNSD4vvw1WE9hn5odYEJex6e0RUp7L-uhKjP7mXrRfkMLO5Romcynpqr_9p6D3tm3Vwdlqa
p18
sS'_refresh_token'
p19
V1//0dn8PtGxkg20lCgYIARAAGA0SNwF-L9IrAuEDub_vE7bWrPy0876MfsOm3NbGXPJp43KClJtz1A39Vp2Z24N_iC88jmrw_G_WtVw
p20
sS'_scopes'
p21
(lp22
S'https://www.googleapis.com/auth/drive.metadata.readonly'
p23
asS'_client_id'
p24
V238466450063-8hnapg7hteur0nbkmepmtsfs35sjsuar.apps.googleusercontent.com
p25
sS'_id_token'
p26
Nsb.